; Function Attrs: mustprogress nounwind uwtable
define hidden void @_ZN10SensorInfo10set_sensorEP15instanceOopDesc(ptr nocapture noundef nonnull writeonly align 8 dereferenceable(64) %0, ptr noundef %1) local_unnamed_addr #1 align 2 {
  %3 = tail call noundef ptr @_ZN8Universe9vm_globalEv() #12
  %4 = tail call noundef ptr @_ZN10OopStorage8allocateEv(ptr noundef nonnull align 8 dereferenceable(126) %3) #12
  %5 = icmp eq ptr %4, null
  br i1 %5, label %6, label %_ZN9OopHandleC2EP10OopStorageP7oopDesc.exit

6:                                                ; preds = %2
  tail call void (ptr, i32, i64, i32, ptr, ...) @_Z23report_vm_out_of_memoryPKcim11VMErrorTypeS0_z(ptr noundef nonnull @.str, i32 noundef 45, i64 noundef 8, i32 noundef -536870911, ptr noundef nonnull @.str.8) #13
  unreachable

_ZN9OopHandleC2EP10OopStorageP7oopDesc.exit:      ; preds = %2
  %7 = load ptr, ptr @_ZN14AccessInternal15RuntimeDispatchILm548932EP7oopDescLNS_11BarrierTypeE0EE11_store_funcE, align 8
  tail call void %7(ptr noundef nonnull %4, ptr noundef %1) #12
  store ptr %4, ptr %0, align 8
  ret void
}